target datalayout = "e-m:e-p270:32:32-p271:32:32-p272:64:64-i64:64-i128:128-f80:128-n8:16:32:64-S128"
target triple = "x86_64-pc-linux-gnu"

%"class.cv::Mat" = type { i32, i32, i32, i32, ptr, ptr, ptr, ptr, ptr, ptr, %"struct.cv::MatSize", %"struct.cv::MatStep" }
%"struct.cv::MatSize" = type { ptr }
%"struct.cv::MatStep" = type { ptr, [2 x i64] }
%"class.cv::MatExpr" = type { ptr, i32, %"class.cv::Mat", %"class.cv::Mat", %"class.cv::Mat", double, double, %"class.cv::Scalar_" }
%"class.cv::Scalar_" = type { %"class.cv::Vec" }
%"class.cv::Vec" = type { %"class.cv::Matx" }
%"class.cv::Matx" = type { [4 x double] }
%"class.cv::Point_" = type { float, float }

; Function Attrs: mustprogress nounwind uwtable
define linkonce_odr noundef float @_ZSt4sqrtf(float noundef %0) #7 comdat {
  %2 = alloca float, align 4
  store float %0, ptr %2, align 4
  %3 = load float, ptr %2, align 4
  %4 = call float @sqrtf(float noundef %3) #3
  ret float %4
}

; Function Attrs: mustprogress nounwind uwtable
define linkonce_odr hidden noundef float @_Z3sqrf(float noundef %0) #7 comdat {
  %2 = alloca float, align 4
  store float %0, ptr %2, align 4
  %3 = load float, ptr %2, align 4
  %4 = load float, ptr %2, align 4
  %5 = fmul float %3, %4
  ret float %5
}

; Function Attrs: mustprogress nounwind uwtable
define linkonce_odr hidden noundef nonnull align 4 dereferenceable(4) ptr @_ZN2cv3Mat2atIfEERT_ii(ptr noundef nonnull align 8 dereferenceable(96) %0, i32 noundef %1, i32 noundef %2) #7 comdat align 2 {
  %4 = alloca ptr, align 8
  %5 = alloca i32, align 4
  %6 = alloca i32, align 4
  store ptr %0, ptr %4, align 8
  store i32 %1, ptr %5, align 4
  store i32 %2, ptr %6, align 4
  %7 = load ptr, ptr %4, align 8
  %8 = getelementptr inbounds %"class.cv::Mat", ptr %7, i32 0, i32 4
  %9 = load ptr, ptr %8, align 8
  %10 = getelementptr inbounds %"class.cv::Mat", ptr %7, i32 0, i32 11
  %11 = getelementptr inbounds %"struct.cv::MatStep", ptr %10, i32 0, i32 0
  %12 = load ptr, ptr %11, align 8
  %13 = getelementptr inbounds i64, ptr %12, i64 0
  %14 = load i64, ptr %13, align 8
  %15 = load i32, ptr %5, align 4
  %16 = sext i32 %15 to i64
  %17 = mul i64 %14, %16
  %18 = getelementptr inbounds i8, ptr %9, i64 %17
  %19 = load i32, ptr %6, align 4
  %20 = sext i32 %19 to i64
  %21 = getelementptr inbounds float, ptr %18, i64 %20
  ret ptr %21
}

; Function Attrs: mustprogress uwtable
define linkonce_odr hidden void @_ZNK2cv7MatExprcvNS_3MatEEv(ptr dead_on_unwind noalias writable sret(%"class.cv::Mat") align 8 %0, ptr noundef nonnull align 8 dereferenceable(352) %1) #4 comdat align 2 personality ptr @__gxx_personality_v0 {
  %3 = alloca ptr, align 8
  %4 = alloca ptr, align 8
  %5 = alloca i1, align 1
  %6 = alloca ptr, align 8
  %7 = alloca i32, align 4
  store ptr %0, ptr %3, align 8
  store ptr %1, ptr %4, align 8
  %8 = load ptr, ptr %4, align 8
  store i1 false, ptr %5, align 1
  call void @_ZN2cv3MatC1Ev(ptr noundef nonnull align 8 dereferenceable(96) %0) #3
  %9 = getelementptr inbounds %"class.cv::MatExpr", ptr %8, i32 0, i32 0
  %10 = load ptr, ptr %9, align 8
  %11 = load ptr, ptr %10, align 8
  %12 = getelementptr inbounds ptr, ptr %11, i64 3
  %13 = load ptr, ptr %12, align 8
  invoke void %13(ptr noundef nonnull align 8 dereferenceable(8) %10, ptr noundef nonnull align 8 dereferenceable(352) %8, ptr noundef nonnull align 8 dereferenceable(96) %0, i32 noundef -1)
          to label %14 unwind label %16

14:                                               ; preds = %2
  store i1 true, ptr %5, align 1
  %15 = load i1, ptr %5, align 1
  br i1 %15, label %21, label %20

16:                                               ; preds = %2
  %17 = landingpad { ptr, i32 }
          cleanup
  %18 = extractvalue { ptr, i32 } %17, 0
  store ptr %18, ptr %6, align 8
  %19 = extractvalue { ptr, i32 } %17, 1
  store i32 %19, ptr %7, align 4
  call void @_ZN2cv3MatD1Ev(ptr noundef nonnull align 8 dereferenceable(96) %0) #3
  br label %22

20:                                               ; preds = %14
  call void @_ZN2cv3MatD1Ev(ptr noundef nonnull align 8 dereferenceable(96) %0) #3
  br label %21

21:                                               ; preds = %20, %14
  ret void

22:                                               ; preds = %16
  %23 = load ptr, ptr %6, align 8
  %24 = load i32, ptr %7, align 4
  %25 = insertvalue { ptr, i32 } poison, ptr %23, 0
  %26 = insertvalue { ptr, i32 } %25, i32 %24, 1
  resume { ptr, i32 } %26
}

; Function Attrs: mustprogress uwtable
define internal void @_ZN2cv9videostabL41estimateGlobMotionLeastSquaresTranslationEiPNS_6Point_IfEES3_Pf(ptr dead_on_unwind noalias writable sret(%"class.cv::Mat") align 8 %0, i32 noundef %1, ptr noundef %2, ptr noundef %3, ptr noundef %4) #4 personality ptr @__gxx_personality_v0 {
  %6 = alloca ptr, align 8
  %7 = alloca i32, align 4
  %8 = alloca ptr, align 8
  %9 = alloca ptr, align 8
  %10 = alloca ptr, align 8
  %11 = alloca i1, align 1
  %12 = alloca %"class.cv::MatExpr", align 8
  %13 = alloca ptr, align 8
  %14 = alloca i32, align 4
  %15 = alloca i32, align 4
  %16 = alloca i32, align 4
  store ptr %0, ptr %6, align 8
  store i32 %1, ptr %7, align 4
  store ptr %2, ptr %8, align 8
  store ptr %3, ptr %9, align 8
  store ptr %4, ptr %10, align 8
  store i1 false, ptr %11, align 1
  call void @_ZN2cv3Mat3eyeEiii(ptr dead_on_unwind writable sret(%"class.cv::MatExpr") align 8 %12, i32 noundef 3, i32 noundef 3, i32 noundef 5)
  invoke void @_ZNK2cv7MatExprcvNS_3MatEEv(ptr dead_on_unwind writable sret(%"class.cv::Mat") align 8 %0, ptr noundef nonnull align 8 dereferenceable(352) %12)
          to label %17 unwind label %60

17:                                               ; preds = %5
  call void @_ZN2cv7MatExprD2Ev(ptr noundef nonnull align 8 dereferenceable(352) %12) #3
  store i32 0, ptr %15, align 4
  br label %18

18:                                               ; preds = %57, %17
  %19 = load i32, ptr %15, align 4
  %20 = load i32, ptr %7, align 4
  %21 = icmp slt i32 %19, %20
  br i1 %21, label %22, label %68

22:                                               ; preds = %18
  %23 = load ptr, ptr %9, align 8
  %24 = load i32, ptr %15, align 4
  %25 = sext i32 %24 to i64
  %26 = getelementptr inbounds %"class.cv::Point_", ptr %23, i64 %25
  %27 = getelementptr inbounds %"class.cv::Point_", ptr %26, i32 0, i32 0
  %28 = load float, ptr %27, align 4
  %29 = load ptr, ptr %8, align 8
  %30 = load i32, ptr %15, align 4
  %31 = sext i32 %30 to i64
  %32 = getelementptr inbounds %"class.cv::Point_", ptr %29, i64 %31
  %33 = getelementptr inbounds %"class.cv::Point_", ptr %32, i32 0, i32 0
  %34 = load float, ptr %33, align 4
  %35 = fsub float %28, %34
  %36 = invoke noundef nonnull align 4 dereferenceable(4) ptr @_ZN2cv3Mat2atIfEERT_ii(ptr noundef nonnull align 8 dereferenceable(96) %0, i32 noundef 0, i32 noundef 2)
          to label %37 unwind label %64

37:                                               ; preds = %22
  %38 = load float, ptr %36, align 4
  %39 = fadd float %38, %35
  store float %39, ptr %36, align 4
  %40 = load ptr, ptr %9, align 8
  %41 = load i32, ptr %15, align 4
  %42 = sext i32 %41 to i64
  %43 = getelementptr inbounds %"class.cv::Point_", ptr %40, i64 %42
  %44 = getelementptr inbounds %"class.cv::Point_", ptr %43, i32 0, i32 1
  %45 = load float, ptr %44, align 4
  %46 = load ptr, ptr %8, align 8
  %47 = load i32, ptr %15, align 4
  %48 = sext i32 %47 to i64
  %49 = getelementptr inbounds %"class.cv::Point_", ptr %46, i64 %48
  %50 = getelementptr inbounds %"class.cv::Point_", ptr %49, i32 0, i32 1
  %51 = load float, ptr %50, align 4
  %52 = fsub float %45, %51
  %53 = invoke noundef nonnull align 4 dereferenceable(4) ptr @_ZN2cv3Mat2atIfEERT_ii(ptr noundef nonnull align 8 dereferenceable(96) %0, i32 noundef 1, i32 noundef 2)
          to label %54 unwind label %64

54:                                               ; preds = %37
  %55 = load float, ptr %53, align 4
  %56 = fadd float %55, %52
  store float %56, ptr %53, align 4
  br label %57

57:                                               ; preds = %54
  %58 = load i32, ptr %15, align 4
  %59 = add nsw i32 %58, 1
  store i32 %59, ptr %15, align 4
  br label %18, !llvm.loop !4

60:                                               ; preds = %5
  %61 = landingpad { ptr, i32 }
          cleanup
  %62 = extractvalue { ptr, i32 } %61, 0
  store ptr %62, ptr %13, align 8
  %63 = extractvalue { ptr, i32 } %61, 1
  store i32 %63, ptr %14, align 4
  call void @_ZN2cv7MatExprD2Ev(ptr noundef nonnull align 8 dereferenceable(352) %12) #3
  br label %148

64:                                               ; preds = %135, %123, %108, %104, %89, %72, %68, %37, %22
  %65 = landingpad { ptr, i32 }
          cleanup
  %66 = extractvalue { ptr, i32 } %65, 0
  store ptr %66, ptr %13, align 8
  %67 = extractvalue { ptr, i32 } %65, 1
  store i32 %67, ptr %14, align 4
  call void @_ZN2cv3MatD1Ev(ptr noundef nonnull align 8 dereferenceable(96) %0) #3
  br label %148

68:                                               ; preds = %18
  %69 = load i32, ptr %7, align 4
  %70 = sitofp i32 %69 to float
  %71 = invoke noundef nonnull align 4 dereferenceable(4) ptr @_ZN2cv3Mat2atIfEERT_ii(ptr noundef nonnull align 8 dereferenceable(96) %0, i32 noundef 0, i32 noundef 2)
          to label %72 unwind label %64

72:                                               ; preds = %68
  %73 = load float, ptr %71, align 4
  %74 = fdiv float %73, %70
  store float %74, ptr %71, align 4
  %75 = load i32, ptr %7, align 4
  %76 = sitofp i32 %75 to float
  %77 = invoke noundef nonnull align 4 dereferenceable(4) ptr @_ZN2cv3Mat2atIfEERT_ii(ptr noundef nonnull align 8 dereferenceable(96) %0, i32 noundef 1, i32 noundef 2)
          to label %78 unwind label %64

78:                                               ; preds = %72
  %79 = load float, ptr %77, align 4
  %80 = fdiv float %79, %76
  store float %80, ptr %77, align 4
  %81 = load ptr, ptr %10, align 8
  %82 = icmp ne ptr %81, null
  br i1 %82, label %83, label %144

83:                                               ; preds = %78
  %84 = load ptr, ptr %10, align 8
  store float 0.000000e+00, ptr %84, align 4
  store i32 0, ptr %16, align 4
  br label %85

85:                                               ; preds = %132, %83
  %86 = load i32, ptr %16, align 4
  %87 = load i32, ptr %7, align 4
  %88 = icmp slt i32 %86, %87
  br i1 %88, label %89, label %135

89:                                               ; preds = %85
  %90 = load ptr, ptr %9, align 8
  %91 = load i32, ptr %16, align 4
  %92 = sext i32 %91 to i64
  %93 = getelementptr inbounds %"class.cv::Point_", ptr %90, i64 %92
  %94 = getelementptr inbounds %"class.cv::Point_", ptr %93, i32 0, i32 0
  %95 = load float, ptr %94, align 4
  %96 = load ptr, ptr %8, align 8
  %97 = load i32, ptr %16, align 4
  %98 = sext i32 %97 to i64
  %99 = getelementptr inbounds %"class.cv::Point_", ptr %96, i64 %98
  %100 = getelementptr inbounds %"class.cv::Point_", ptr %99, i32 0, i32 0
  %101 = load float, ptr %100, align 4
  %102 = fsub float %95, %101
  %103 = invoke noundef nonnull align 4 dereferenceable(4) ptr @_ZN2cv3Mat2atIfEERT_ii(ptr noundef nonnull align 8 dereferenceable(96) %0, i32 noundef 0, i32 noundef 2)
          to label %104 unwind label %64

104:                                              ; preds = %89
  %105 = load float, ptr %103, align 4
  %106 = fsub float %102, %105
  %107 = invoke noundef float @_Z3sqrf(float noundef %106)
          to label %108 unwind label %64

108:                                              ; preds = %104
  %109 = load ptr, ptr %9, align 8
  %110 = load i32, ptr %16, align 4
  %111 = sext i32 %110 to i64
  %112 = getelementptr inbounds %"class.cv::Point_", ptr %109, i64 %111
  %113 = getelementptr inbounds %"class.cv::Point_", ptr %112, i32 0, i32 1
  %114 = load float, ptr %113, align 4
  %115 = load ptr, ptr %8, align 8
  %116 = load i32, ptr %16, align 4
  %117 = sext i32 %116 to i64
  %118 = getelementptr inbounds %"class.cv::Point_", ptr %115, i64 %117
  %119 = getelementptr inbounds %"class.cv::Point_", ptr %118, i32 0, i32 1
  %120 = load float, ptr %119, align 4
  %121 = fsub float %114, %120
  %122 = invoke noundef nonnull align 4 dereferenceable(4) ptr @_ZN2cv3Mat2atIfEERT_ii(ptr noundef nonnull align 8 dereferenceable(96) %0, i32 noundef 1, i32 noundef 2)
          to label %123 unwind label %64

123:                                              ; preds = %108
  %124 = load float, ptr %122, align 4
  %125 = fsub float %121, %124
  %126 = invoke noundef float @_Z3sqrf(float noundef %125)
          to label %127 unwind label %64

127:                                              ; preds = %123
  %128 = fadd float %107, %126
  %129 = load ptr, ptr %10, align 8
  %130 = load float, ptr %129, align 4
  %131 = fadd float %130, %128
  store float %131, ptr %129, align 4
  br label %132

132:                                              ; preds = %127
  %133 = load i32, ptr %16, align 4
  %134 = add nsw i32 %133, 1
  store i32 %134, ptr %16, align 4
  br label %85, !llvm.loop !6

135:                                              ; preds = %85
  %136 = load ptr, ptr %10, align 8
  %137 = load float, ptr %136, align 4
  %138 = load i32, ptr %7, align 4
  %139 = sitofp i32 %138 to float
  %140 = fdiv float %137, %139
  %141 = invoke noundef float @_ZSt4sqrtf(float noundef %140)
          to label %142 unwind label %64

142:                                              ; preds = %135
  %143 = load ptr, ptr %10, align 8
  store float %141, ptr %143, align 4
  br label %144

144:                                              ; preds = %142, %78
  store i1 true, ptr %11, align 1
  %145 = load i1, ptr %11, align 1
  br i1 %145, label %147, label %146

146:                                              ; preds = %144
  call void @_ZN2cv3MatD1Ev(ptr noundef nonnull align 8 dereferenceable(96) %0) #3
  br label %147

147:                                              ; preds = %146, %144
  ret void

148:                                              ; preds = %64, %60
  %149 = load ptr, ptr %13, align 8
  %150 = load i32, ptr %14, align 4
  %151 = insertvalue { ptr, i32 } poison, ptr %149, 0
  %152 = insertvalue { ptr, i32 } %151, i32 %150, 1
  resume { ptr, i32 } %152
}