; Function Attrs: mustprogress uwtable
define internal void @_ZN2cv9videostabL41estimateGlobMotionLeastSquaresTranslationEiPNS_6Point_IfEES3_Pf(ptr dead_on_unwind noalias writable sret(%"class.cv::Mat") align 8 %0, i32 noundef %1, ptr nocapture noundef readonly %2, ptr nocapture noundef readonly %3, ptr noundef writeonly %4) #3 personality ptr @__gxx_personality_v0 {
  %6 = alloca %"class.cv::MatExpr", align 8
  call void @_ZN2cv3Mat3eyeEiii(ptr dead_on_unwind nonnull writable sret(%"class.cv::MatExpr") align 8 %6, i32 noundef 3, i32 noundef 3, i32 noundef 5)
  call void @_ZN2cv3MatC1Ev(ptr noundef nonnull align 8 dereferenceable(96) %0) #21
  %7 = load ptr, ptr %6, align 8, !noalias !16
  %8 = load ptr, ptr %7, align 8
  %9 = getelementptr inbounds i8, ptr %8, i64 24
  %10 = load ptr, ptr %9, align 8
  invoke void %10(ptr noundef nonnull align 8 dereferenceable(8) %7, ptr noundef nonnull align 8 dereferenceable(352) %6, ptr noundef nonnull align 8 dereferenceable(96) %0, i32 noundef -1)
          to label %_ZNK2cv7MatExprcvNS_3MatEEv.exit unwind label %.body

.body:                                            ; preds = %5
  %11 = landingpad { ptr, i32 }
          cleanup
  call void @_ZN2cv3MatD1Ev(ptr noundef nonnull align 8 dereferenceable(96) %0) #21
  call void @_ZN2cv7MatExprD2Ev(ptr noundef nonnull align 8 dereferenceable(352) %6) #21
  resume { ptr, i32 } %11

_ZNK2cv7MatExprcvNS_3MatEEv.exit:                 ; preds = %5
  %12 = getelementptr inbounds i8, ptr %6, i64 208
  call void @_ZN2cv3MatD1Ev(ptr noundef nonnull align 8 dereferenceable(96) %12) #21
  %13 = getelementptr inbounds i8, ptr %6, i64 112
  call void @_ZN2cv3MatD1Ev(ptr noundef nonnull align 8 dereferenceable(96) %13) #21
  %14 = getelementptr inbounds i8, ptr %6, i64 16
  call void @_ZN2cv3MatD1Ev(ptr noundef nonnull align 8 dereferenceable(96) %14) #21
  %15 = icmp sgt i32 %1, 0
  br i1 %15, label %.lr.ph, label %._crit_edge

.lr.ph:                                           ; preds = %_ZNK2cv7MatExprcvNS_3MatEEv.exit
  %16 = getelementptr inbounds i8, ptr %0, i64 16
  %17 = getelementptr inbounds i8, ptr %0, i64 72
  %wide.trip.count = zext nneg i32 %1 to i64
  br label %18

18:                                               ; preds = %.lr.ph, %18
  %indvars.iv = phi i64 [ 0, %.lr.ph ], [ %indvars.iv.next, %18 ]
  %19 = getelementptr inbounds %"class.cv::Point_", ptr %3, i64 %indvars.iv
  %20 = load float, ptr %19, align 4
  %21 = getelementptr inbounds %"class.cv::Point_", ptr %2, i64 %indvars.iv
  %22 = load float, ptr %21, align 4
  %23 = fsub float %20, %22
  %24 = load ptr, ptr %16, align 8
  %25 = getelementptr inbounds i8, ptr %24, i64 8
  %26 = load float, ptr %25, align 4
  %27 = fadd float %23, %26
  store float %27, ptr %25, align 4
  %28 = getelementptr inbounds i8, ptr %19, i64 4
  %29 = load float, ptr %28, align 4
  %30 = getelementptr inbounds i8, ptr %21, i64 4
  %31 = load float, ptr %30, align 4
  %32 = fsub float %29, %31
  %33 = load ptr, ptr %16, align 8
  %34 = load ptr, ptr %17, align 8
  %35 = load i64, ptr %34, align 8
  %36 = getelementptr inbounds i8, ptr %33, i64 %35
  %37 = getelementptr inbounds i8, ptr %36, i64 8
  %38 = load float, ptr %37, align 4
  %39 = fadd float %32, %38
  store float %39, ptr %37, align 4
  %indvars.iv.next = add nuw nsw i64 %indvars.iv, 1
  %exitcond.not = icmp eq i64 %indvars.iv.next, %wide.trip.count
  br i1 %exitcond.not, label %._crit_edge, label %18, !llvm.loop !19

._crit_edge:                                      ; preds = %18, %_ZNK2cv7MatExprcvNS_3MatEEv.exit
  %40 = sitofp i32 %1 to float
  %41 = getelementptr inbounds i8, ptr %0, i64 16
  %42 = load ptr, ptr %41, align 8
  %43 = getelementptr inbounds i8, ptr %0, i64 72
  %44 = getelementptr inbounds i8, ptr %42, i64 8
  %45 = load float, ptr %44, align 4
  %46 = fdiv float %45, %40
  store float %46, ptr %44, align 4
  %47 = load ptr, ptr %41, align 8
  %48 = load ptr, ptr %43, align 8
  %49 = load i64, ptr %48, align 8
  %50 = getelementptr inbounds i8, ptr %47, i64 %49
  %51 = getelementptr inbounds i8, ptr %50, i64 8
  %52 = load float, ptr %51, align 4
  %53 = fdiv float %52, %40
  store float %53, ptr %51, align 4
  %.not = icmp eq ptr %4, null
  br i1 %.not, label %78, label %54

54:                                               ; preds = %._crit_edge
  store float 0.000000e+00, ptr %4, align 4
  br i1 %15, label %.lr.ph38, label %._crit_edge39

.lr.ph38:                                         ; preds = %54
  %55 = load ptr, ptr %41, align 8
  %56 = load ptr, ptr %43, align 8
  %57 = getelementptr i8, ptr %55, i64 8
  %wide.trip.count44 = zext nneg i32 %1 to i64
  br label %58

58:                                               ; preds = %.lr.ph38, %58
  %59 = phi float [ 0.000000e+00, %.lr.ph38 ], [ %74, %58 ]
  %indvars.iv41 = phi i64 [ 0, %.lr.ph38 ], [ %indvars.iv.next42, %58 ]
  %60 = getelementptr inbounds %"class.cv::Point_", ptr %3, i64 %indvars.iv41
  %61 = getelementptr inbounds %"class.cv::Point_", ptr %2, i64 %indvars.iv41
  %62 = load float, ptr %57, align 4
  %63 = load i64, ptr %56, align 8
  %gep = getelementptr i8, ptr %57, i64 %63
  %64 = load float, ptr %gep, align 4
  %65 = load <2 x float>, ptr %60, align 4
  %66 = load <2 x float>, ptr %61, align 4
  %67 = fsub <2 x float> %65, %66
  %68 = insertelement <2 x float> poison, float %62, i64 0
  %69 = insertelement <2 x float> %68, float %64, i64 1
  %70 = fsub <2 x float> %67, %69
  %71 = fmul <2 x float> %70, %70
  %shift = shufflevector <2 x float> %71, <2 x float> poison, <2 x i32> <i32 1, i32 poison>
  %72 = fadd <2 x float> %71, %shift
  %73 = extractelement <2 x float> %72, i64 0
  %74 = fadd float %59, %73
  store float %74, ptr %4, align 4
  %indvars.iv.next42 = add nuw nsw i64 %indvars.iv41, 1
  %exitcond45.not = icmp eq i64 %indvars.iv.next42, %wide.trip.count44
  br i1 %exitcond45.not, label %._crit_edge39, label %58, !llvm.loop !21

._crit_edge39:                                    ; preds = %58, %54
  %75 = phi float [ 0.000000e+00, %54 ], [ %74, %58 ]
  %76 = fdiv float %75, %40
  %77 = call noundef float @sqrtf(float noundef %76) #21
  store float %77, ptr %4, align 4
  br label %78

78:                                               ; preds = %._crit_edge, %._crit_edge39
  ret void
}